; Function Attrs: mustprogress uwtable
define ptr @ucnv_open_77(ptr noundef %0, ptr noundef %1) local_unnamed_addr #0 {
  %3 = icmp eq ptr %1, null
  br i1 %3, label %9, label %4

4:                                                ; preds = %2
  %5 = load i32, ptr %1, align 4, !tbaa !3
  %6 = icmp slt i32 %5, 1
  br i1 %6, label %7, label %9

7:                                                ; preds = %4
  %8 = tail call ptr @ucnv_createConverter_77(ptr noundef null, ptr noundef %0, ptr noundef nonnull %1)
  br label %9

9:                                                ; preds = %2, %4, %7
  %.0 = phi ptr [ %8, %7 ], [ null, %4 ], [ null, %2 ]
  ret ptr %.0
}